target datalayout = "e-m:e-p270:32:32-p271:32:32-p272:64:64-i64:64-i128:128-f80:128-n8:16:32:64-S128"
target triple = "x86_64-pc-linux-gnu"

%"class.google::protobuf::io::FileInputStream::CopyingFileInputStream" = type <{ %"class.google::protobuf::io::CopyingInputStream", i32, i8, i8, [2 x i8], i32, i8, [3 x i8] }>
%"class.google::protobuf::io::CopyingInputStream" = type { ptr }
%"class.google::protobuf::internal::LogMessage" = type { i32, ptr, i32, %"class.std::__cxx11::basic_string" }
%"class.std::__cxx11::basic_string" = type { %"struct.std::__cxx11::basic_string<char>::_Alloc_hider", i64, %union.anon }
%"struct.std::__cxx11::basic_string<char>::_Alloc_hider" = type { ptr }
%union.anon = type { i64, [8 x i8] }
%"class.google::protobuf::internal::LogFinisher" = type { i8 }

@.str = private unnamed_addr constant [157 x i8] c"generated/home/dtcxzyw/WorkSpace/Projects/compilers/llvm-opt-benchmark/bench/opencv/opencv/3rdparty/protobuf/src/google/protobuf/io/zero_copy_stream_impl.cc\00", align 1
@.str.2 = private unnamed_addr constant [28 x i8] c"CHECK failed: !is_closed_: \00", align 1

; Function Attrs: mustprogress uwtable
define hidden noundef i32 @_ZN6google8protobuf2io15FileInputStream22CopyingFileInputStream4SkipEi(ptr noundef nonnull align 8 dereferenceable(21) %0, i32 noundef %1) unnamed_addr #4 align 2 personality ptr @__gxx_personality_v0 {
  %3 = alloca i32, align 4
  %4 = alloca ptr, align 8
  %5 = alloca i32, align 4
  %6 = alloca %"class.google::protobuf::internal::LogMessage", align 8
  %7 = alloca i1, align 1
  %8 = alloca i1, align 1
  %9 = alloca ptr, align 8
  %10 = alloca i32, align 4
  %11 = alloca %"class.google::protobuf::internal::LogFinisher", align 1
  store ptr %0, ptr %4, align 8, !tbaa !14
  store i32 %1, ptr %5, align 4, !tbaa !8
  %12 = load ptr, ptr %4, align 8
  %13 = getelementptr inbounds nuw %"class.google::protobuf::io::FileInputStream::CopyingFileInputStream", ptr %12, i32 0, i32 3
  %14 = load i8, ptr %13, align 1, !tbaa !16, !range !20, !noundef !21
  %15 = trunc i8 %14 to i1
  store i1 false, ptr %7, align 1
  store i1 false, ptr %8, align 1
  call void @llvm.lifetime.start.p0(i64 1, ptr %11) #3
  br i1 %15, label %17, label %16

16:                                               ; preds = %2
  br label %21

17:                                               ; preds = %2
  call void @llvm.lifetime.start.p0(i64 56, ptr %6) #3
  store i1 true, ptr %7, align 1
  call void @_ZN6google8protobuf8internal10LogMessageC1ENS0_8LogLevelEPKci(ptr noundef nonnull align 8 dereferenceable(56) %6, i32 noundef 3, ptr noundef @.str, i32 noundef 154)
  store i1 true, ptr %8, align 1
  %18 = invoke noundef nonnull align 8 dereferenceable(56) ptr @_ZN6google8protobuf8internal10LogMessagelsEPKc(ptr noundef nonnull align 8 dereferenceable(56) %6, ptr noundef @.str.2)
          to label %19 unwind label %40

19:                                               ; preds = %17
  invoke void @_ZN6google8protobuf8internal11LogFinisheraSERNS1_10LogMessageE(ptr noundef nonnull align 1 dereferenceable(1) %11, ptr noundef nonnull align 8 dereferenceable(56) %18)
          to label %20 unwind label %44

20:                                               ; preds = %19
  br label %21

21:                                               ; preds = %20, %16
  call void @llvm.lifetime.end.p0(i64 1, ptr %11) #3
  %22 = load i1, ptr %8, align 1
  br i1 %22, label %23, label %24

23:                                               ; preds = %21
  call void @_ZN6google8protobuf8internal10LogMessageD1Ev(ptr noundef nonnull align 8 dereferenceable(56) %6) #3
  br label %24

24:                                               ; preds = %23, %21
  %25 = load i1, ptr %7, align 1
  br i1 %25, label %26, label %27

26:                                               ; preds = %24
  call void @llvm.lifetime.end.p0(i64 56, ptr %6) #3
  br label %27

27:                                               ; preds = %26, %24
  %28 = getelementptr inbounds nuw %"class.google::protobuf::io::FileInputStream::CopyingFileInputStream", ptr %12, i32 0, i32 6
  %29 = load i8, ptr %28, align 4, !tbaa !29, !range !20, !noundef !21
  %30 = trunc i8 %29 to i1
  br i1 %30, label %55, label %31

31:                                               ; preds = %27
  %32 = getelementptr inbounds nuw %"class.google::protobuf::io::FileInputStream::CopyingFileInputStream", ptr %12, i32 0, i32 1
  %33 = load i32, ptr %32, align 8, !tbaa !22
  %34 = load i32, ptr %5, align 4, !tbaa !8
  %35 = sext i32 %34 to i64
  %36 = call i64 @lseek(i32 noundef %33, i64 noundef %35, i32 noundef 1) #3
  %37 = icmp ne i64 %36, -1
  br i1 %37, label %38, label %55

38:                                               ; preds = %31
  %39 = load i32, ptr %5, align 4, !tbaa !8
  store i32 %39, ptr %3, align 4
  br label %59

40:                                               ; preds = %17
  %41 = landingpad { ptr, i32 }
          cleanup
  %42 = extractvalue { ptr, i32 } %41, 0
  store ptr %42, ptr %9, align 8
  %43 = extractvalue { ptr, i32 } %41, 1
  store i32 %43, ptr %10, align 4
  br label %48

44:                                               ; preds = %19
  %45 = landingpad { ptr, i32 }
          cleanup
  %46 = extractvalue { ptr, i32 } %45, 0
  store ptr %46, ptr %9, align 8
  %47 = extractvalue { ptr, i32 } %45, 1
  store i32 %47, ptr %10, align 4
  call void @llvm.lifetime.end.p0(i64 1, ptr %11) #3
  br label %48

48:                                               ; preds = %44, %40
  %49 = load i1, ptr %8, align 1
  br i1 %49, label %50, label %51

50:                                               ; preds = %48
  call void @_ZN6google8protobuf8internal10LogMessageD1Ev(ptr noundef nonnull align 8 dereferenceable(56) %6) #3
  br label %51

51:                                               ; preds = %50, %48
  %52 = load i1, ptr %7, align 1
  br i1 %52, label %53, label %54

53:                                               ; preds = %51
  call void @llvm.lifetime.end.p0(i64 56, ptr %6) #3
  br label %54

54:                                               ; preds = %53, %51
  br label %61

55:                                               ; preds = %31, %27
  %56 = getelementptr inbounds nuw %"class.google::protobuf::io::FileInputStream::CopyingFileInputStream", ptr %12, i32 0, i32 6
  store i8 1, ptr %56, align 4, !tbaa !29
  %57 = load i32, ptr %5, align 4, !tbaa !8
  %58 = call noundef i32 @_ZN6google8protobuf2io18CopyingInputStream4SkipEi(ptr noundef nonnull align 8 dereferenceable(8) %12, i32 noundef %57)
  store i32 %58, ptr %3, align 4
  br label %59

59:                                               ; preds = %55, %38
  %60 = load i32, ptr %3, align 4
  ret i32 %60

61:                                               ; preds = %54
  %62 = load ptr, ptr %9, align 8
  %63 = load i32, ptr %10, align 4
  %64 = insertvalue { ptr, i32 } poison, ptr %62, 0
  %65 = insertvalue { ptr, i32 } %64, i32 %63, 1
  resume { ptr, i32 } %65
}