; Function Attrs: mustprogress uwtable
define hidden noundef i32 @_ZN6google8protobuf2io15FileInputStream22CopyingFileInputStream4SkipEi(ptr noundef nonnull align 8 dereferenceable(21) %0, i32 noundef %1) unnamed_addr #3 align 2 personality ptr @__gxx_personality_v0 {
  %3 = alloca %"class.google::protobuf::internal::LogMessage", align 8
  %4 = alloca %"class.google::protobuf::internal::LogFinisher", align 1
  %5 = getelementptr inbounds nuw i8, ptr %0, i64 13
  %6 = load i8, ptr %5, align 1, !tbaa !13, !range !16, !noundef !17
  %7 = trunc nuw i8 %6 to i1
  call void @llvm.lifetime.start.p0(i64 1, ptr nonnull %4) #15
  br i1 %7, label %8, label %11

8:                                                ; preds = %2
  call void @llvm.lifetime.start.p0(i64 56, ptr nonnull %3) #15
  call void @_ZN6google8protobuf8internal10LogMessageC1ENS0_8LogLevelEPKci(ptr noundef nonnull align 8 dereferenceable(56) %3, i32 noundef 3, ptr noundef nonnull @.str, i32 noundef 154)
  %9 = invoke noundef nonnull align 8 dereferenceable(56) ptr @_ZN6google8protobuf8internal10LogMessagelsEPKc(ptr noundef nonnull align 8 dereferenceable(56) %3, ptr noundef nonnull @.str.2)
          to label %10 unwind label %21

10:                                               ; preds = %8
  invoke void @_ZN6google8protobuf8internal11LogFinisheraSERNS1_10LogMessageE(ptr noundef nonnull align 1 dereferenceable(1) %4, ptr noundef nonnull align 8 dereferenceable(56) %9)
          to label %12 unwind label %23

11:                                               ; preds = %2
  call void @llvm.lifetime.end.p0(i64 1, ptr nonnull %4) #15
  br label %.critedge16

12:                                               ; preds = %10
  call void @llvm.lifetime.end.p0(i64 1, ptr nonnull %4) #15
  call void @_ZN6google8protobuf8internal10LogMessageD1Ev(ptr noundef nonnull align 8 dereferenceable(56) %3) #15
  call void @llvm.lifetime.end.p0(i64 56, ptr nonnull %3) #15
  br label %.critedge16

.critedge16:                                      ; preds = %11, %12
  %13 = getelementptr inbounds nuw i8, ptr %0, i64 20
  %14 = load i8, ptr %13, align 4, !tbaa !15, !range !16, !noundef !17
  %15 = trunc nuw i8 %14 to i1
  br i1 %15, label %26, label %16

16:                                               ; preds = %.critedge16
  %17 = getelementptr inbounds nuw i8, ptr %0, i64 8
  %18 = load i32, ptr %17, align 8, !tbaa !6
  %19 = sext i32 %1 to i64
  %20 = call i64 @lseek(i32 noundef %18, i64 noundef %19, i32 noundef 1) #15
  %.not = icmp eq i64 %20, -1
  br i1 %.not, label %26, label %28

21:                                               ; preds = %8
  %22 = landingpad { ptr, i32 }
          cleanup
  br label %25

23:                                               ; preds = %10
  %24 = landingpad { ptr, i32 }
          cleanup
  call void @llvm.lifetime.end.p0(i64 1, ptr nonnull %4) #15
  br label %25

25:                                               ; preds = %21, %23
  %.pn = phi { ptr, i32 } [ %24, %23 ], [ %22, %21 ]
  call void @_ZN6google8protobuf8internal10LogMessageD1Ev(ptr noundef nonnull align 8 dereferenceable(56) %3) #15
  call void @llvm.lifetime.end.p0(i64 56, ptr nonnull %3) #15
  resume { ptr, i32 } %.pn

26:                                               ; preds = %16, %.critedge16
  store i8 1, ptr %13, align 4, !tbaa !15
  %27 = call noundef i32 @_ZN6google8protobuf2io18CopyingInputStream4SkipEi(ptr noundef nonnull align 8 dereferenceable(8) %0, i32 noundef %1)
  br label %28

28:                                               ; preds = %16, %26
  %.013 = phi i32 [ %27, %26 ], [ %1, %16 ]
  ret i32 %.013
}